; Function Attrs: mustprogress nounwind uwtable
define dso_local noundef i32 @_ZN4node7UDPWrap9RecvStartEv(ptr noundef nonnull align 8 dereferenceable(352) %this) unnamed_addr #3 align 2 {
entry:
  %state_.i = getelementptr inbounds i8, ptr %this, i64 56
  %0 = load i32, ptr %state_.i, align 8
  %1 = add i32 %0, -1
  %spec.select.i = icmp ult i32 %1, 2
  br i1 %spec.select.i, label %return, label %if.end

if.end:                                           ; preds = %entry
  %handle_ = getelementptr inbounds i8, ptr %this, i64 120
  %call2 = tail call i32 @uv_udp_recv_start(ptr noundef nonnull %handle_, ptr noundef nonnull @_ZN4node7UDPWrap7OnAllocEP11uv_handle_smP8uv_buf_t, ptr noundef nonnull @_ZN4node7UDPWrap6OnRecvEP8uv_udp_slPK8uv_buf_tPK8sockaddrj) #19
  %cmp = icmp eq i32 %call2, -114
  %spec.store.select = select i1 %cmp, i32 0, i32 %call2
  br label %return

return:                                           ; preds = %entry, %if.end
  %retval.0 = phi i32 [ %spec.store.select, %if.end ], [ -9, %entry ]
  ret i32 %retval.0
}